(dp0
S'__version__'
p1
S'1.0'
p2
sS'l4'
p3
cnumpy.core.multiarray
_reconstruct
p4
(cnumpy
ndarray
p5
(I0
tp6
S'b'
p7
tp8
Rp9
(I1
(I1
I3
tp10
cnumpy
dtype
p11
(S'f8'
p12
I0
I1
tp13
Rp14
(I3
S'<'
p15
NNNI-1
I-1
I0
tp16
bI00
S'\x00\x00\x00\x00\x00\x00\x00\x00\x9a\x99\x99\x99\x99\x99\xc9?\x00\x00\x00\x00\x00\x00\xf0?'
p17
tp18
bsS'__header__'
p19
S'MATLAB 5.0 MAT-file, Platform: GLNXA64, Created on: Thu Oct 20 19:59:10 2011'
p20
sS'im1'
p21
g4
(g5
(I0
tp22
g7
tp23
Rp24
(I1
(I100
I100
tp25
g11
(S'u1'
p26
I0
I1
tp27
Rp28
(I3
S'|'
p29
NNNI-1
I-1
I0
tp30
bI01
S'())**+++,,---...////0001111222233344445555666667777888889999:::::;;;;;<<<<=====>>>>>??????@@@@@@@@@@(())**+++,,,--....///0001111222233344445555666677777888899999:::::;;;;;<<<<<=====>>>>>??????@@@@@@@@\'(())**+++,,,---...///0000111222233344445555666677778888899999:::::;;;;;<<<<<=====>>>>>?????????@@@?\'\'(())**+++,,,---...///0000111222333344445556666777778888899999:::::;;;;;<<<<<<=====>>>>>???????????&\'\'(())**+++,,,---...///000111122233344445555666677778888899999::::::;;;;;;<<<<<=====>>>>>>?????????&&\'\'(())***++,,,---...///000111222333344455556666777788888999999::::::;;;;;;<<<<<======>>>>>>>??????%&\'\'((())**+++,,,---...///00011122233344455556666777788888999999::::::;;;;;;;<<<<<<======>>>>>>>>>>>%&&\'\'(()))**+++,,,---..///00011122233344455556667777788888999999:::::::;;;;;;;<<<<<<======>>>>>>>>>>%%&&\'\'(()))**+++,,---...///0011122233344455566667777888889999999::::::::;;;;;;;<<<<<<========>>>>>>>$%%&&\'\'(()))**+++,,---..///000112223334445556667777888889999999:::::::::;;;;;;;;<<<<<<<========>>>>>$$%%&&\'\'(())***++,,,--...//00011222334445556667777888889999999::::::::::;;;;;;;;;<<<<<<<<===========#$%%&&\'\'((())**+++,,--...//000112223344455666777788889999999:::::::::::;;;;;;;;;;;<<<<<<<<==========#$$%%&&\'\'(())***++,,---..//000112233344555667777888899999:::::::::::::;;;;;;;;;;;;;<<<<<<<<<========##$$%%&&\'\'(())**++,,,--..//0011122334455566777888899999::::::::::;;;;;;;;;;;;;;;;;;;<<<<<<<<<<<====="#$$%%&&\'\'(())***++,,--..//0011223344455667778889999:::::::;;;;;;;;;;;;;;;;;;;;;;;;;;<<<<<<<<<<<<<<<"##$$%%&&\'\'(())**++,,--..//00112233445566777889999:::::;;;;;;;;;;;;;;;;;;;;;;;;;;;;;;;<<<<<<<<<<<<<<""#$$%%&&\'\'(())**++,,--..//001123344556677888999:::;;;;;;;;<<<<<<<<;;;;;;;;;;;;;;;;;;;;;<<<<<<<<<<<<!"##$$%%&&\'(())**++,,--..//0112233455667788999:::;;;;<<<<<<<<<<<<<<<<<<<<;;;;;;;;;;;;;;;;<<<<<<<<<<<!""#$$%%&&\'\'(())*++,,--../001123344566778899::;;;<<<<<============<<<<<<<<<<<;;;;;;;;;;;;;;<<<<<<<<<!!"##$$%&&\'\'(())**+,,--.//0012234456677889::;;;<<<======>>>>>=========<<<<<<<<<<;;;;;;;;;;;;;<<<<<<<!!""#$$%%&&\'(())**+,,--.//011233455677899::;;<<===>>>>>>>>>>>>>>>>>======<<<<<<<<<;;;;;;;;;;;;;;;;;; !""##$%%&&\'(())**+,,-../001223455677899:;;<<==>>>???????????????>>>>>=====<<<<<<<<<;;;;;;;;;;;;;;;; !!"##$$%&&\'\'())*++,,-../0112344567789::;<<==>>??@@@@@AAAA@@@@@@????>>>>=====<<<<<<<<<;;;;;;;;;;;;;;  !""#$$%&&\'\'())*++,--.//012334567789:;;<==>??@@AAAABBBBBBBAAAAA@@@????>>>=====<<<<<<<<;;;;;;;;;;;;;  !""#$$%%&\'\'())*++,--./011234566789:;<<=>??@@AABBCCCCCCCCCCBBBBAAA@@@???>>>====<<<<<<<<;;;;;;;;;;;;\x1f !!"##$%%&\'\'())*++,-../01233456789:;<==>?@AABBCCDDDDEEEDDDDDCCCBBAAA@@@??>>>>====<<<<<<<;;;;;;;;;;;\x1f !!"##$%%&\'\'())*+,,-./00123456789:;<=>?@@ABCCDEEEFFFFFFFFFEEEDDCCBBBAA@@???>>>====<<<<<<<;;;;;;;;;;\x1f  !""#$%%&\'\'())*+,,-./0123456789:;<=>?@ABCDDEFFGGHHHHHHHGGGFFFEEDCCBBAA@@@??>>>====<<<<<<<;;;;;;;;;\x1f  !""#$$%&\'\'())*+,-../012345678:;<=>?@ACDEEFGHHIIJJJJJJJIIHHGGFFEEDCCBBAA@@???>>====<<<<<<<;;;;;;;;\x1f\x1f !""#$$%&\'\'()**+,-./0123456789:<=>?ABCDEFGHIJJKKLLLLLLKKKJJIHHGFFEDDCCBAA@@???>>>====<<<<<<;;;;;;;\x1e\x1f !!"#$$%&\'\'()*++,-./012345689:;=>?ABCEFGHIJKLMMNNNNNNNNMMLKKJIHHGFEEDCCBBA@@???>>>====<<<<<<;;;;;;\x1e\x1f !!"#$$%&\'\'()*+,,-./01245678:;<>?ABDEFHIJLMNNOPPQQQQQPPOONMLLKJIHGGFEDDCBBA@@???>>>====<<<<<<;;;;;\x1e\x1f  !"#$$%&\'\'()*+,-./012345789;<>?ABDEGHJKMNOPQRSSSTTTSSRRQPONMLKKJIHGFEDDCBBAA@???>>>====<<<<<<;;;;\x1e\x1f  !"#$$%&\'(()*+,-./01235679:<=?@BDEGIJLMOPRSTUVVVWWVVVUTSRQPONMLKJIHGFEDDCBBA@@???>>>====<<<<<<;;;\x1e\x1f  !"##$%&\'(()*+,-./02345789;=>@BCEGIKLNPRSUVWXYYZZZYYXXWVUTRQPONLKJIHGFEDDCBBA@@???>>>====<<<<<;;;\x1e\x1f\x1f !"##$%&\'())*+,-/01235679:<>?ACEGIKMOPRTVXYZ[\\]]]]]\\[[ZXWVUSRQONMKJIHGFEDDCBBA@@???>>>====<<<<<;;\x1e\x1f\x1f !"##$%&\'()*+,-./01245689;=?@BDFHJLOQSUWY[\\^_``aaa``_^\\[ZXWUTRQONMLJIHGFEDDCBAA@@??>>>=====<<<<<;\x1e\x1e\x1f !"#$$%&\'()*+,-./0234679:<>@ACFHJLOQSVXZ\\^`acddeeedcba`^\\[YWVTSQPNMKJIHGFEDCCBAA@@??>>>====<<<<<<\x1e\x1e\x1f !"#$$%&\'()*+,-./1235689;=?ACEGILNQSVX[]`bdeghiiiihgfdca_]\\ZXVTSQONMKJIHGFEDCCBAA@@??>>>====<<<<<\x1d\x1e\x1f !"#$$%&\'()*+,-/0124578:<>@BDFHKMPSUX[^`cehiklmmmmlkjhfdb`^\\ZXVTRQONLKJIGFFEDCBBAA@@??>>>====<<<<\x1d\x1e\x1f !"#$%%&\'()*+,./0134679;<>@CEGJLORUX[^adgilnoqrrrqpomkigec`^\\ZXVTRPOMLKIHGFEDDCBBA@@???>>>====<<<\x1d\x1e\x1f !"#$%&&\'()+,-./0235689;=?ADFHKNQTWZ]adgjmprtuvwwvusqomjhec`^\\YWUSRPNMKJIHGFEDCCBAA@@???>>>====<<\x1d\x1e\x1f !"#$%&\'()*+,-./124578:<>@BEGJLORVY\\`cgjnqtwyz{{{zywuspmkheb`][YWUSQONLKJIGFFEDCBBAA@@???>>>====<\x1d\x1e\x1f !"#$%&\'()*+,-.0124579;=?ACEHKNQTW[^bfjnqux{}\x7f\x80\x80\x80\x7f}{yvspmjgeb_]ZXVTRPOMLJIHGFEDDCBBAA@@???>>>====\x1d\x1e\x1f !"#$%&\'()*+,-/0134689;=?ADFILORUY]`dimquy|\x7f\x82\x83\x84\x85\x84\x83\x81\x7f}zvspmjfda^\\YWUSQONLKJIHGFEDCCBAA@@@???>>>===\x1d\x1e\x1f !"#$%&\'()*+,./023568:<>@BEGJMPSWZ^bgkotx|\x80\x83\x86\x88\x89\x89\x88\x87\x85\x83\x80}yvrokheb_]ZXVTRPOMLKIHGFEEDCBBAA@@@???>>>==\x1d\x1e\x1f !"#$%&\'()*+-./123578:<>@CEHKNQTX\\`dhmqv{\x7f\x83\x86\x89\x8b\x8c\x8d\x8c\x8b\x89\x86\x83\x7f|xtqmjgda^[YWUSQONLKJIHGFEDDCBBAA@@@???>>>>\x1d\x1e\x1f !"#$%&\'()*,-./124579;=?ACFIKNRUY]aejosx}\x81\x86\x89\x8c\x8e\x90\x90\x8f\x8e\x8b\x89\x85\x82~zvrokheb_\\ZXVTRPNMLJIHGFEEDCCBBAA@@@???>>>\x1d\x1e\x1f !"#$%&\'()+,-.0124679;=?ADFILORVZ^bfkpuz\x7f\x83\x88\x8b\x8e\x91\x92\x92\x91\x90\x8e\x8b\x87\x83\x80|xtplifc`][XVTRQONLKJIHGFEDDCCBBAA@@@???>>\x1d\x1e\x1f !"#$%&\')*+,-/0134689;=?BDGJMPSWZ^cglqv{\x80\x84\x89\x8d\x90\x92\x93\x94\x93\x91\x8f\x8c\x88\x85\x81}yuqmjfca^[YWUSQPNMKJIHGFFEDDCBBBAA@@@???>\x1d\x1e\x1f !"#$%&()*+,-/013568:<>@BEGJMPSW[_chlqv{\x80\x85\x89\x8d\x90\x92\x94\x94\x93\x92\x8f\x8c\x89\x85\x81}yuqnjgda^\\ZWUSRPOMLKJIHGFEEDCCBBAAA@@@???\x1d\x1e\x1f !"#%&\'()*+,./023568:<>@BEGJMPTW[_chmqv{\x80\x85\x89\x8d\x90\x92\x93\x94\x93\x92\x8f\x8c\x89\x85\x81}yvrnkgdb_\\ZXVTRQONLKJIHGFFEDDCCBBAAA@@@??\x1d\x1e\x1f !#$%&\'()*+-./123578:<>@CEHJMQTW[_chlqv{\x7f\x84\x88\x8c\x8f\x91\x92\x92\x92\x90\x8e\x8b\x88\x85\x81}yurnkheb_]ZXVTSQPNMLKJIHGFEEDDCCBBBAAA@@@\x1d\x1e\x1f!"#$%&\'()*,-./124579:<>ACEHKMQTW[_cglpuz~\x83\x86\x8a\x8d\x8f\x90\x90\x90\x8f\x8d\x8a\x87\x84\x80|yuqnkheb_][XWUSQPOMLKJIHGGFEEDDCCBBBAAA@@\x1d\x1e !"#$%&\'()+,-.0124579;<?ACEHKMPTW[_cgkotx}\x81\x84\x88\x8a\x8c\x8d\x8e\x8d\x8c\x8a\x88\x85\x82\x7f{xtqnjgeb_][YWUSRPONLKJIIHGFFEEDDCCBBBAAA@\x1d\x1f !"#$%&\'(*+,-.0134679;=?ACEHKMPSWZ^bfjnrv{~\x82\x85\x87\x89\x8a\x8b\x8a\x89\x88\x86\x83\x80}zwspmjgdb_][YWUTRQONMLKJIHGGFFEEDDCCCBBAAA\x1d\x1f !"#$%&\')*+,-/0134679;=?ACEHJMPSVZ]aeimqtx|\x7f\x82\x84\x86\x87\x87\x87\x86\x85\x83\x81~{xuroligda_][YWUTRQPNMLKJIIHGGFFEEDDCCCBBBA\x1e\x1f !"#$%&()*+,./0134689;=?ACEHJMPSVY\\`dgkorvy|\x7f\x81\x82\x83\x84\x84\x83\x82\x80~|yvtqnkifda_][YWUTRQPONMLKJIHHGGFFEEDDCCCBBB\x1e\x1f !"#$&\'()*+,./0235689;=?ACEHJMORUX[_bfimpsvy{}\x7f\x80\x80\x80\x80\x7f}{ywtromjheca_][YWVTSQPONMLKJJIHHGFFFEEDDDCCCB\x1e\x1f !"#%&\'()*+-./1235689;=?ACEGJLORTWZ^adgknqsvxz{|}}|{zywurpnkigeb`^\\[YWVTSRPONMLKKJIIHHGGFFEEEDDCCC\x1e\x1f !"$%&\'()*,-./123568:;=?ACEGILNQTWY\\_behknqsuwxyyyyxwvtrpnljhfdb`^\\ZYWVTSRQPONMLKJJIIHHGGFFEEEDDDC\x1e\x1f !#$%&\'(*+,-.0124578:;=?ACEGILNPSVX[^adfilnprtuvvvvutsrpnmkigeca_]\\ZYWVTSRQPONMLLKJJIIHHGGFFFEEEDD\x1e\x1f "#$%&\')*+,-/0124578:;=?ACEGIKMPRUWZ]_bdgikmoqrssssrrqonmkigfdb`_][ZXWVTSRQPONMMLKKJJIIHHGGGFFFEEE\x1e\x1f!"#$%&()*+,./0134578:<=?ACDFIKMORTVY[^`cegiklnoppppponmlkihfdca`^][ZXWVUSRQPPONMLLKKJJIIHHHGGGFFFE\x1e !"#$&\'()*+-./0234679:<=?ABDFHJLOQSUXZ\\_aceghjklmmnnmmlkjihfecb`_^\\[YXWVUTSRQPONNMLLKKJJIIIHHGGGFFF\x1e !"#%&\'()*,-./1234679:<=?ABDFHJLNPRTWY[]_acefgijjkkkkkjihgfedba`^]\\ZYXWVUTSRQPOONMMLLKKJJJIIIHHHGGF\x1f !"$%&\'(*+,-.01235679:<=?ABDFHJKMOQTVXZ\\]_acdefghiiiihhggfedba`_^\\[ZYXWVUTSRQQPOONMMLLKKKJJJIIIHHHG\x1f !#$%&\')*+,-/01245689:<=?ABDFGIKMOQSUWXZ\\^_abcdeffggggffedcba`_^]\\[ZYXWVUTSRRQPPONNMMMLLKKKJJJIIIHH\x1f "#$%\'()*+-./01345689;<>?ABDFGIKLNPRTVWY[\\^_`bccdeeeeeeddcba``_^]\\[ZYXWVUTTSRQQPPOONNMMLLLKKKJJJIII\x1f!"#$&\'()*,-./02345789;<>?ABDEGIJLNPQSUVXZ[\\^_`abbcccccccbba``_^]\\[ZZYXWVUUTSRRQQPPOONNMMMLLLKKKJJJI\x1f!"#%&\'(*+,-.01234678:;<>?ABDEGHJLMOQRTUWXZ[\\^__`aabbbbbbaa``_^]]\\[ZYYXWVVUTTSRRQQPPOOONNNMMMLLLKKKJ !"$%&\')*+,./01245679:;=>?ABDEGHJKMOPRSUVWYZ[\\]^__``aaaa```__^^]\\\\[ZYYXWWVUUTSSRRQQPPPOOONNNMMMLLLKK !#$%\'()*+-./02345689:<=>@ABDEGHJKMNPQSTUWXYZ[\\]^^___```____^^]]\\[[ZYYXWWVVUTTSSRRRQQPPPOOOONNNMMMLL "#$&\'()+,-./12346789;<=>@ACDEGHJKLNOQRSUVWXYZ[\\]]^^^____^^^^]]\\\\[[ZYYXXWWVUUTTTSSRRRQQQPPPOOOONNNMM "#%&\'(*+,-/01245678:;<=?@ACDEGHJKLNOPRSTUWXYZZ[\\\\]]^^^^^^^]]]\\\\\\[[ZYYXXWWVVVUUTTSSSRRRRQQQPPPPOOONN!"#%&()*+-./02345689:;=>?@BCDFGHJKLNOPQSTUVWXYZZ[\\\\]]]]]]]]]]]\\\\[[[ZZYYXXWWWVVUUUTTTSSSRRRRQQQQPPPOO!"$%\'()+,-.012346789:<=>?ABCDFGHJKLMOPQRSUVWWXYZ[[\\\\\\]]]]]]]]\\\\\\[[[ZZZYYXXXWWVVVUUUTTTTSSSSRRRRQQQPP!#$&\'(*+,./01345679:;<=?@ABDEFGIJKLMOPQRSTUVWXYYZ[[\\\\\\\\]]]]]\\\\\\\\\\[[[ZZZYYYXXWWWWVVVUUUUTTTTSSSSRRRQQ!#%&\')*+-./12345789:;=>?@ACDEFHIJKLNOPQRSTUVWXXYZZ[[\\\\\\\\]]]]\\\\\\\\\\\\[[[ZZZYYYYXXXWWWWVVVVUUUUUTTTSSSRR"#%&()+,-/01245678:;<=>@ABCDFGHIJKMNOPQRSTUVWXXYZZ[[\\\\\\\\\\]]]]\\\\\\\\\\\\[[[[ZZZZYYYYXXXXWWWWWVVVVUUUUTTTS"$%\'(*+,./02345789:;=>?@ABDEFGHIKLMNOPQRSTUVWXXYZZ[[[\\\\\\\\]]]]]]]\\\\\\\\\\\\[[[[ZZZZZYYYYYXXXXXWWWWVVVUUUT"$&\')*,-.01245678:;<=>@ABCDEFHIJKLMNOPQRSTUVWXXYZZ[[\\\\\\\\]]]]]]]]]]]]\\\\\\\\\\[[[[[[ZZZZZYYYYYYXXXXWWWVVU#%&()+,./02345789:<=>?@ACDEFGHIJLMNOPQRSTUUVWXXYZZ[[\\\\\\]]]]]]]^]]]]]]]]]]\\\\\\\\\\\\[[[[[[[ZZZZZYYYYXXXWW#%\'(*+-.01245679:;<=?@ABCDEGHIJKLMNOPQRSTUVWWXYYZ[[\\\\\\]]]^^^^^^^^^^^^^^^^]]]]]]]]\\\\\\\\\\\\\\[[[[[ZZZYYXX$%\')*,-/02346789;<=>?ABCDEFGHIKLMNOPQRSTTUVWXXYZZ[\\\\\\]]^^^^^_____________^^^^^^^^^^]]]]]]]\\\\\\\\[[[ZZY$&\')+,./1245689:;=>?@ABDEFGHIJKLMNOPQRSTUVWXXYZZ[\\\\]]]^^^_____`````````````___________^^^^^^]]]\\\\\\[[$&(*+-.0134678:;<=?@ABCDFGHIJKLMNOPQRSTUVWWXYZZ[\\\\]]^^^___`````aaaaaaaaaaaaaaaaaa`````````____^^]]]\\%\'(*,./1245789;<=>@ABCDEFHIJKLMNOPQRSTUVVWXYZZ[\\\\]]^^__```aaaaabbbbbbbbbbbbbbbbbbbbbbbbaaaaa```__^^]%\')+,.0134679:;=>?@BCDEFGIJKLMNOPQRSTUVVWXYZZ[\\\\]^^__```aaabbbbccccccccccddddddddcccccccccbbbbaa``__&(*+-/024578:;<>?@ACDEFGHJKLMNOPQRSTUVWWXYZ[[\\]]^__``aaabbccccddddddeeeeeeeeeeeeeeeeeeeeeddddcccbba`&(*,./134689:<=?@ABDEFGHJKLMNOPQRSTUVWXXYZ[\\\\]^^_``aabbcccdddeeeeefffffffggggggggggggggfffffeeeddccb\')+-.024578:;=>@ABDEFGHJKLMNOPQRSTUVWXYZZ[\\]]^_``aabbccddeeeffffggggghhhhhhhhhiiiiiiihhhhhhgggffeedc\')+-/134689;<>?ABCEFGHJKLMNOPQRSTUVWXYZ[\\\\]^__`aabccddeefffggghhhhiiiiijjjjjjjjjjjjjjjjjjjiiiihhgffe(*,.023579:<=?@BCDFGHJKLMNOPRSTUVWXYYZ[\\]^__`aabccdeeffggghhiiijjjjkkkkkllllllllllllllllllkkkjjiihgg(*,.02468:;=>@ACDFGHJKLMNPQRSTUVWXYZ[\\]]^_`aabcddeefgghhiiijjkkkllllmmmmmnnnnnnnnnnnnnnnnnmmmllkkjih)+-/13579;<>?ACDEGHJKLMOPQRSTUVWYYZ[\\]^_`aabcddeffghhiijjkklllmmmnnnooooopppppppppppppppppooonnmllkj)+.02468:;=?ABDEGHJKLNOPQRTUVWXYZ[\\]^_`aabcdeefgghiijjkllmmmnnooopppqqqqqrrrrrrrsssssrrrrrqqqpoonmml*,.03579;<>@BCEGHIKLNOPRSTUVWYZ[\\]^_``abcdeffghiijkkllmmnnooppqqqrrrsssstttttuuuuuuuuuttttsssrqqponm*,/1358:<=?ACEFHIKLNOPRSTVWXYZ[\\]^_`abcdefgghijjkllmnnooppqqrrsssttuuuuvvvvwwwwwwwwwwwwvvvvuutssrqpo+-/2468;=?@BDFGIKLNOQRSUVWXZ[\\]^_`abcdefghiijkllmnnoppqqrsstttuuvvvwwwxxxxyyyyyyyyyyyyyyxxxwwvuutsrq'
p31
tp32
bsS'im3'
p33
g4
(g5
(I0
tp34
g7
tp35
Rp36
(I1
(I100
I100
tp37
g28
I01
S'####$$$$$$$%%%%%%%%%%%%%%%%%%%%$$%%%%%%%%%%%%%%%&&&&&&\'\'\'\'(((()))***++,,,--..//001122233445566677788"#####$$$$$$$$$$$$$$$$$$$$$$$$$$$$$$$$$$$$$%%%%%%%%&&&&&\'\'\'\'((()))***++,,,--..//00112223344556667777"""#######$$$$$$$$$$$$$$$$$$$$$$$$$$$$$$$$$$$$$%%%%%%&&&&\'\'\'\'((()))***++,,,--..//0011223334455666777!"""""#################################$$$$$$$$$$%%%%%%&&&&\'\'\'((()))***++,,,--..//001122333445566667!!!""""""##################################$$$$$$$$%%%%%&&&&\'\'\'((()))***++,,---..//00112233444555666 !!!!"""""""""""#############################$$$$$$$%%%%%&&&&\'\'\'((()))***++,,--...//0011223344455566  !!!!!!""""""""""""""""""""""""""""###########$$$$$$%%%%%&&&&\'\'\'((()))**+++,,--..//0001122334445556    !!!!!!!""""""""""""""""""""""""""""#########$$$$$$%%%%&&&&\'\'\'\'((())***++,,,--..//001122233444555\x1f     !!!!!!!!!!""""""""""""""""""""""""#########$$$$$%%%%%&&&&\'\'\'((()))**+++,,--...//00112233344555\x1f\x1f\x1f     !!!!!!!!!!!!!!!!"""""""""""""""""########$$$$$%%%%%&&&&\'\'\'((()))***++,,,--..//00111223344455\x1f\x1f\x1f\x1f       !!!!!!!!!!!!!!!!!"""""""""""""#######$$$$$$%%%%%&&&&\'\'\'(((())***+++,,--...//0011222334445\x1e\x1e\x1f\x1f\x1f\x1f       !!!!!!!!!!!!!!!!"""""""""""########$$$$$$%%%%%&&&&\'\'\'(((()))**+++,,---..//0001122333444\x1e\x1e\x1e\x1f\x1f\x1f\x1f         !!!!!!!!!!!!!"""""""""""#######$$$$$$%%%%%&&&&\'\'\'\'(((()))***++,,,--..///001122233444\x1e\x1e\x1e\x1e\x1f\x1f\x1f\x1f\x1f         !!!!!!!!!!!"""""""""#######$$$$$$$%%%%%&&&&&\'\'\'\'((())))***++,,,--...//001112233344\x1d\x1e\x1e\x1e\x1e\x1f\x1f\x1f\x1f\x1f         !!!!!!!!!!""""""""#######$$$$$$%%%%%&&&&&\'\'\'\'\'(((()))***+++,,,--...//000112223334\x1d\x1d\x1e\x1e\x1e\x1e\x1f\x1f\x1f\x1f\x1f        !!!!!!!!!"""""""#######$$$$$$%%%%%&&&&&&\'\'\'\'\'(((())))***+++,,,---..///00111223334\x1d\x1d\x1d\x1e\x1e\x1e\x1e\x1f\x1f\x1f\x1f\x1f       !!!!!!!!"""""""#####$$$$$$%%%%%%&&&&&\'\'\'\'\'\'((((())))****+++,,,--...///00111222333\x1c\x1d\x1d\x1d\x1e\x1e\x1e\x1e\x1f\x1f\x1f\x1f\x1f      !!!!!!!""""""#####$$$$$%%%%%%&&&&&\'\'\'\'\'\'(((((()))))****+++,,,---...///00111222333\x1c\x1d\x1d\x1d\x1e\x1e\x1e\x1e\x1f\x1f\x1f\x1f\x1f      !!!!!!"""""#####$$$$$%%%%&&&&&&\'\'\'\'\'((((((())))))****++++,,,,---...///00111222333\x1c\x1c\x1d\x1d\x1d\x1e\x1e\x1e\x1e\x1f\x1f\x1f\x1f      !!!!!"""""####$$$$%%%%&&&&&\'\'\'\'\'(((((())))))))******++++,,,,---....//000111222333\x1c\x1c\x1d\x1d\x1d\x1e\x1e\x1e\x1e\x1f\x1f\x1f\x1f     !!!!!""""####$$$$%%%%&&&&\'\'\'\'((((()))))))********++++++,,,,,----...///000111222333\x1c\x1c\x1c\x1d\x1d\x1d\x1e\x1e\x1e\x1f\x1f\x1f\x1f     !!!!""""###$$$$%%%&&&&\'\'\'(((()))))*********+++++++++,,,,,,-----...////000111222333\x1b\x1c\x1c\x1d\x1d\x1d\x1e\x1e\x1e\x1f\x1f\x1f\x1f    !!!!"""####$$$%%%&&&\'\'\'((())))*****++++++++++,,,,,,,,,,,------....////0001111222333\x1b\x1c\x1c\x1d\x1d\x1d\x1e\x1e\x1e\x1f\x1f\x1f\x1f   !!!!"""###$$$%%%&&&\'\'((()))***+++++,,,,,,,,,,---------------......////00001112222333\x1b\x1c\x1c\x1c\x1d\x1d\x1e\x1e\x1e\x1f\x1f\x1f    !!!"""###$$$%%&&&\'\'((())***++,,,,-------......................../////000011112222333\x1b\x1c\x1c\x1c\x1d\x1d\x1e\x1e\x1e\x1f\x1f\x1f   !!!"""###$$%%%&&\'\'(())***++,,---.....//////////////////..///////////00000111122223333\x1b\x1b\x1c\x1c\x1d\x1d\x1e\x1e\x1e\x1f\x1f\x1f   !!"""###$$%%&&\'\'(())**++,,--...///00000000000000000000//////////000000011111222233333\x1b\x1b\x1c\x1c\x1d\x1d\x1e\x1e\x1e\x1f\x1f   !!!""##$$$%%&&\'\'())**++,--..//00111122222222222221111111000000000000011111122222333334\x1b\x1b\x1c\x1c\x1d\x1d\x1e\x1e\x1f\x1f\x1f  !!!""##$$%%&&\'\'(())*++,--.//00122233344444444443333322222111111111111111112222223333344\x1b\x1b\x1c\x1c\x1d\x1d\x1e\x1e\x1f\x1f   !!""##$$%%&&\'\'())*++,--./00122344555666666666665554444333322222222222222222222333333444\x1b\x1b\x1c\x1c\x1d\x1d\x1e\x1e\x1f\x1f  !!""##$$%%&&\'(()**+,,-./0112344566778888999888887776655544443333332222222223333333344444\x1b\x1b\x1c\x1c\x1d\x1d\x1e\x1e\x1f\x1f  !!""##$%%&&\'(()*++,-./0012345677899::;;;;;;;;:::9998877666555444433333333333333344444444\x1b\x1b\x1c\x1c\x1d\x1e\x1e\x1f\x1f  !!""##$$%&&\'(()*+,,-./0123456789:;<<==>>>>>>>===<<;;::98877766555544444444444444444444455\x1b\x1b\x1c\x1d\x1d\x1e\x1e\x1f\x1f  !!"##$$%&&\'())*+,-./012345679:;<=>>?@@AAAAAAA@@??>==<<;::99887766655555444444444444555555\x1b\x1b\x1c\x1d\x1d\x1e\x1e\x1f  !!""#$$%&&\'())*+,-./01235678:;<=?@ABCCDDEEEDDDCCBAA@?>>=<<;::99887766665555555555555555555\x1b\x1c\x1c\x1d\x1d\x1e\x1f\x1f  !""##$%%&\'())*+,-./01345789;<>?@BCDEFGHHHHHHHGGFEDDCBA@?>==<;;:998887776666666555555566666\x1b\x1c\x1c\x1d\x1e\x1e\x1f\x1f !!"##$%%&\'(()*+,-./0234678:<=?@BCEFHIJKLLLLLLLKJIHGFEDCBA@??>=<;;::998887777666666666666666\x1b\x1c\x1c\x1d\x1e\x1e\x1f  !""#$$%&\'\'()*+,-./0234679;<>@ACEGIJLMNOPQQQQPPONMLKJHGFEDCA@@?>=<<;::9998887777777777666666\x1b\x1c\x1c\x1d\x1e\x1f\x1f !!"##$%&&\'()*+,-./0235689;=?@BDFHJLNPQSTUUVVUUTSRQPNMKJIGFEDCA@@?>=<<;;::9998888877777777777\x1b\x1c\x1d\x1d\x1e\x1f\x1f !""#$%%&\'()*+,-./0235689;=?ACEGJLNPRTVXYZZ[[ZZYXVUSRPOMLJIGFECBA@??>=<<;;:::9999888888888777\x1b\x1c\x1d\x1e\x1e\x1f  !"##$%&\'()*+,-./0234689;=?ACFHKMORTWY[]^_````_^\\[YWVTRPNMKJHGEDCBA@?>>=<<;;;:::9999988888888\x1b\x1c\x1d\x1e\x1e\x1f !""#$%&&\'()*+,./0134679;=?ADFHKNPSVY[^`bdeeffedca`^\\ZWUSQPNLJIGFEDCBA@?>>==<<;;::::9999999988\x1b\x1c\x1d\x1e\x1f\x1f !"#$$%&\'()*+,-.0124579;=?ACFHKNQTWZ]`cegikkllkjhfdb`][YWTRPNMKIHGEDCBA@@?>>==<<;;;::::::99999\x1c\x1c\x1d\x1e\x1f !!"#$%&\'()*+,-./124579:<>ACFHKNQTW[^behkmoqqrqqonkigda_\\ZWUSQOMLJIGFEDCBA@??>>==<<<;;;;::::::9\x1c\x1d\x1d\x1e\x1f !"##$%&\'()*+,./023568:<>@CEHKNQTW[_bfjmpsuwxxwvusqnkhec`]ZXVSQONLJIHFEDCBAA@??>>==<<<<;;;;;:::\x1c\x1d\x1e\x1f\x1f !"#$%&\'()*+,-.0134689;=@BDGJMPSW[^bfjnrux{|}~}|zxvsplifc`][XVTRPNLKIHGFEDCBA@@??>>===<<<<;;;;;\x1c\x1d\x1e\x1f !""#$%&\'()*,-./124579;=?ADFILORVZ^bfjnswz}\x80\x82\x83\x83\x83\x82\x80}zwtpmjfc`][XVTRPNLKIHGFEDCBBA@@??>>>===<<<<;;\x1c\x1d\x1e\x1f !"#$%&\'()*+,-/023568:<>@CEHKNQUX\\`einrw{\x7f\x82\x85\x87\x88\x89\x88\x87\x84\x82\x7f{xtpmifc`]ZXVTRPNLKJHGFEDCCBAA@@??>>>====<<<\x1c\x1d\x1e\x1f !"#$%&\'()+,-.0124679;=?BDGILPSW[_cglqvz\x7f\x83\x86\x89\x8b\x8d\x8d\x8c\x8b\x89\x86\x82\x7f{wsplieb_]ZXUSQPNMKJIHFFEDCBBAA@@???>>>====\x1d\x1e\x1f !"#$%&\'()*+,./023568:<>@CEHKNQUY]aejotx}\x82\x86\x8a\x8d\x8f\x90\x91\x90\x8e\x8c\x89\x86\x82~zvrokhda_\\ZWUSQPNMKJIHGFEDDCBBAA@@???>>>>=\x1d\x1e\x1f !"#$%&\'()+,-.0134679;=?BDGJLPSWZ^cglqv{\x80\x84\x89\x8d\x90\x92\x93\x94\x93\x91\x8f\x8c\x88\x85\x81}yuqmjgca^[YWUSQPNMKJIHGFEEDCCBBAA@@@???>>\x1d\x1e\x1f !"#$%\'()*+,./023578:<>@CEHKNQTX\\`dinsx}\x82\x86\x8b\x8e\x92\x94\x95\x95\x95\x93\x91\x8e\x8b\x87\x83\x7f{wsolheb`][XVTSQONMKJIHGGFEDDCCBBAA@@@???\x1d\x1e\x1f "#$%&\'()*,-.0134679;=?BDFILORVY]bfjoty~\x83\x88\x8c\x90\x93\x95\x96\x96\x96\x94\x92\x8f\x8c\x88\x84\x80|xuqmjgda_\\ZXVTRQONMLJIIHGFEEDDCCBBAAA@@?\x1d\x1f !"#$%&\')*+,./023578:<>@CEHJMPSW[_cglpuz\x7f\x84\x88\x8c\x90\x93\x95\x96\x97\x96\x95\x93\x90\x8d\x89\x85\x81~zvrolhec`^[YWUTRQONMLKJIHGFFEEDDCCBBAAA@\x1e\x1f !"#$&\'()*,-.0124679;=?ACFIKNQUX\\`dhlqvz\x7f\x84\x88\x8c\x8f\x92\x94\x96\x96\x96\x94\x92\x90\x8d\x89\x86\x82~{wspmjgda_][YWUSRQONMLKJIHHGFFEDDDCCBBAA\x1e\x1f !#$%&\'(*+,-/023568:<>@BDGILORUY]`dimqvz\x7f\x83\x88\x8b\x8f\x91\x93\x95\x95\x95\x93\x92\x8f\x8c\x89\x86\x82\x7f{xtqnkhec`^\\ZXVUSRPONMLKJIIHGGFEEDDDCCBB\x1e\x1f!"#$%&()*+-./124579;=?ACEHJMPSVZ]aeimqvz\x7f\x83\x87\x8a\x8d\x90\x92\x93\x93\x93\x92\x91\x8e\x8c\x89\x86\x82\x7f|xurolifda_][YXVTSRPONMLKJJIHHGFFEEDDDCC\x1e !"#$&\'()+,-/023568:;=?BDFIKNQTWZ^aeimqvz~\x82\x85\x89\x8c\x8e\x90\x91\x92\x91\x90\x8f\x8d\x8b\x88\x85\x82\x7f|yuromjgec`^\\ZYWVTSRPONMLLKJIIHGGFFEEDDD\x1f !"$%&\')*+-./124579:<>@BEGILOQTX[^beimquy}\x81\x84\x87\x8a\x8c\x8e\x8f\x8f\x8f\x8f\x8d\x8c\x8a\x87\x84\x82\x7f|yvspmkhfda_]\\ZXWUTSRPONNMLKJJIHHGGFFEED\x1f !#$%\'()*,-.0134689;=?ACEHJMORUX[_bfimqtx|\x7f\x82\x85\x88\x8a\x8c\x8d\x8d\x8d\x8d\x8c\x8a\x88\x86\x84\x81~|yvspnkigdb`^][YXVUTSRQPONMLKKJJIHHGGFFE\x1f "#$&\'(*+,./023578:<>@BDFHKMPSUX\\_bfimptw{~\x81\x84\x86\x88\x89\x8b\x8b\x8b\x8b\x8a\x88\x87\x85\x83\x80~{yvsqnljgeca_^\\ZYXVUTSRQPONMMLKKJIIHHGGF\x1f!"#%&\')*+-.0134679;<>@BDGIKNPSVY\\_beilpsvy|\x7f\x82\x84\x86\x87\x88\x89\x89\x89\x88\x87\x85\x84\x82\x7f}{xvtqoljhfdb`_]\\ZYWVUTSRQPONNMLLKJJIIHHG !"$%&()+,-/023568:;=?ACEGJLNQTVY\\_beilorux{~\x80\x82\x84\x85\x86\x87\x87\x87\x86\x85\x84\x82\x80\x7f|zxvtqomkigeca`^][ZXWVUTSRQPPONMMLKKJJIIH !#$&\'(*+,./124579:<>@BDFHJLOQTWY\\_behknqtwz|~\x80\x82\x83\x84\x85\x85\x85\x84\x83\x82\x81\x7f~|zxvtqomkigfdba_^\\[ZXWVUTSRQQPONNMMLKKJJI "#%&\')*,-.0134689;=>@BDFIKMORTWZ\\_behknpsvx{}\x7f\x80\x81\x82\x83\x83\x83\x83\x82\x81\x80~}{ywvtrpnljhfecb`_]\\[YXWVUTSSRQPPONNMLLKKJ!"#%&()+,-/023578:<=?ACEGIKNPRUWZ]_behjmpruwy{}~\x80\x80\x81\x81\x81\x81\x80\x80\x7f}|zywutrpnljigedba`^]\\[YXWVUUTSRQQPOONMMLLK!"$%\'(*+-./124679;<>@BDFHJLNPSUXZ]_begjloqtvxz{}~\x7f\x7f\x80\x80\x80\x7f~~|{zxwusrpnmkihfecba_^]\\[YXXWVUTSSRQPPOONMML!#$&\')*,-/0235689;=?@BDFHJLOQSUXZ]_bdgilnqsuwyz{}}~~~~~}}|zyxvusrpomljhgfdca`_^]\\[ZYXWVUTTSRRQPPONNM"#%&()+,./124578:<>?ACEGIKMOQTVX[]_bdgiknprtvwyz{|}}}}}||{zyxvusrqonlkihfedba`_^]\\[ZYXWVVUTSSRQQPPON"#%\'(*+-.0134689;<>@BDFGIKMPRTVX[]_bdfikmoqsuvxyz{{||||{{zyxwvusrqonmkjhgfecba`_^]\\[ZYXXWVUUTSSRQQPO"$%\'(*,-/023578:;=?ABDFHJLNPRTWY[]`bdfhkmoqrtvwxyzz{{{{{zzyxwvutrqpnmlkihgfdcba`_^]\\[ZZYXWWVUUTSRRQP#$&\')+,./124679:<>@ACEGIKMOQSUWY[]`bdfhjlnprsuvwxyzzzzzzzyxxwvutsqponlkjihgedcba`_^]]\\[ZYYXWVVUTTSRR#%&()+-.0135689;=?@BDFGIKMOQSUWY\\^`bdfhjlnpqstuvwxyyzzzyyyxwwvutsrqonmlkjigfedcba``_^]\\[[ZYXXWVVUTSS#%\'(*,-/024579:<>?ACEFHJLNPRTVXZ\\^`bdfhjlmoqrtuvwxxyyyyyyxxwwvutsrqponmlkihgfedccba`_^]]\\[ZZYXXWVUUT$%\')*,./134689;=>@BCEGIKMNPRTVXZ\\^`bdfhjlmoprstuvwxxxyyyxxxwwvutsrrqponlkjihggfedcba``_^]\\\\[ZZYXWWVU$&\')+-.023578:<=?ABDFHJKMOQSUWY[]_abdfhjlmoprstuvwwxxxxxxxxwwvuutsrqponmlkjjihgfedcbba`__^]\\\\[ZYYXWV$&(*+-/024679;<>@ACEGHJLNPRTUWY[]_acefhjlmopqstuvvwwxxxxxxxwwvvutssrqponmllkjihgfeedcbaa`_^^]\\\\[ZYXX%\'(*,./13568:;=?@BDFGIKMOQRTVXZ\\^_aceghjlmopqrtuuvwwxxxxxxxxwwvuutssrqponmmlkjihhgfeddcbaa`_^^]\\[[ZY%\')+,.023579:<>?ACEFHJLNOQSUWYZ\\^`bdegijlmopqrtuuvwwxxxxxxxxwwwvuutssrqpoonmlkjjihggfedccbaa`_^^]\\[Z%\')+-/124689;=?@BDFGIKMNPRTVWY[]_`bdfgiklnopqstuuvwwxxxyyyxxxwwwvuutssrqpponmmlkjiihgffedccba``_^]\\\\&(*,-/13578:<>?ACEFHJLMOQSUVXZ\\^_acdfhiklnoprstuvvwxxxyyyyyyxxxwwvvuttsrrqpoonmllkjiihgffedccba``_^]&(*,.024579;=>@BDEGIKLNPRTUWY[\\^`bceghjkmnpqrstuvwwxxyyyyyyyyyxxxwwvuutssrqqponnmllkjiihgffedccba`_^\')+-/12468:<=?ACEFHJLMOQSTVXZ\\]_abdfgijlmopqrstuvwxxyyyzzzzzzyyyxxwwvvuutssrqqponnmllkjjihggfedcbba`\')+-/13579;<>@BDEGIKMNPRTUWY[\\^`acefhjklnoprstuvwwxyyzzzzz{zzzzzyyxxxwvvuutssrqqpoonmmlkjjihggfedcba(*,.024689;=?ACEFHJLMOQSUVXZ\\]_abdfgijlmopqrstuvwxyyzz{{{{{{{{{{zzzyyxxwwvuuttsrrqpponmmlkkjihgffedc(*,.02468:<>@BDEGIKMNPRTVWY[\\^`bcefhjklnoqrstuvwxyyzz{{|||||||||{{{zzyyxxwwvvuttssrqqponnmlkkjihgfed(+-/13579;=?ACEFHJLNOQSUWXZ\\]_acdfgijlmopqstuvwxyyz{{|||}}}}}}}}}|||{{zzyyxxwwvuuttsrrqpoonmlkkjihgf)+-02468:<>@BDEGIKMOPRTVXY[]_`bdeghjkmnpqrsuvwxyyz{||}}}~~~~~~~~~~}}}||{{zzyyxxwwvuutssrqpponmlkjihg),.02479;=?ACEFHJLNPRSUWYZ\\^`acefhiklnoqrstvwxyzz{|}}~~~\x7f\x7f\x7f\x7f\x7f\x7f\x7f\x7f\x7f\x7f\x7f~~~}}|||{{zyyxxwvvuttsrqqponmlkji*,.13579;>@BDFGIKMOQSTVXZ\\]_abdfgijlmoprstuwxyz{{|}~~\x7f\x7f\x80\x80\x80\x80\x80\x81\x81\x81\x81\x80\x80\x80\x80\x80\x7f\x7f\x7f~~}}||{{zyyxxwvvutsrrqponmkj*-/1468:<>@CEGHJLNPRTVWY[]_`bdeghjlmopqstuwxyz{|}}~\x7f\x7f\x80\x80\x81\x81\x81\x82\x82\x82\x82\x82\x82\x82\x82\x82\x81\x81\x81\x81\x80\x80\x7f\x7f\x7f~~}||{{zyyxwwvutsrqponml+-02479;=?ACFHJKMOQSUWYZ\\^`aceghjkmnpqstuwxyz{|}~\x7f\x7f\x80\x81\x81\x82\x82\x82\x83\x83\x83\x83\x83\x83\x83\x83\x83\x83\x83\x83\x83\x82\x82\x82\x81\x81\x80\x80\x7f\x7f~~}}|{{zyyxwvutsrqpom+.0357:<>@BDGIKMOQRTVXZ\\^_acdfhikmnpqstuwxyz{|}~\x7f\x80\x81\x81\x82\x82\x83\x83\x84\x84\x84\x85\x85\x85\x85\x85\x85\x85\x85\x85\x84\x84\x84\x84\x83\x83\x83\x82\x82\x81\x81\x80\x80\x7f\x7f~}}|{zzyxwvutsrpo,.1368:=?ACEHJLNPRTVWY[]_abdfhiklnpqrtuwxyz{}~\x7f\x80\x80\x81\x82\x83\x83\x84\x84\x85\x85\x86\x86\x86\x86\x87\x87\x87\x87\x87\x87\x86\x86\x86\x86\x86\x85\x85\x85\x84\x84\x83\x83\x82\x82\x81\x81\x80\x7f\x7f~}||{zyxwvusrq,/1469;=@BDFIKMOQSUWY[]^`bdfgiklnoqrtuwxy{|}~\x7f\x80\x81\x82\x83\x83\x84\x85\x85\x86\x86\x87\x87\x88\x88\x88\x88\x88\x88\x88\x88\x88\x88\x88\x88\x88\x88\x87\x87\x87\x86\x86\x85\x85\x84\x84\x83\x83\x82\x81\x81\x80\x7f\x7f~}|{zyxvutr-/2479<>ACEGJLNPRTVXZ\\^`bcegijlnoqrtuwxz{|}~\x80\x81\x82\x83\x83\x84\x85\x86\x86\x87\x88\x88\x89\x89\x89\x8a\x8a\x8a\x8a\x8a\x8a\x8a\x8a\x8a\x8a\x8a\x8a\x8a\x89\x89\x89\x88\x88\x87\x87\x87\x86\x85\x85\x84\x84\x83\x82\x81\x81\x80\x7f~}|{yxwut-0258:=?BDFIKMOQSUWY[]_aceghjlnoqrtuwxz{|~\x7f\x80\x81\x82\x83\x84\x85\x86\x87\x87\x88\x89\x89\x8a\x8a\x8b\x8b\x8b\x8c\x8c\x8c\x8c\x8c\x8c\x8c\x8c\x8c\x8c\x8c\x8c\x8b\x8b\x8b\x8a\x8a\x8a\x89\x89\x88\x88\x87\x86\x86\x85\x84\x83\x83\x82\x81\x80\x7f~|{zywv.0368;>@CEGJLNPSUWY[]_acefhjlnoqrtvwyz{}~\x7f\x81\x82\x83\x84\x85\x86\x87\x88\x89\x89\x8a\x8b\x8b\x8c\x8c\x8d\x8d\x8d\x8e\x8e\x8e\x8e\x8e\x8e\x8e\x8e\x8e\x8e\x8e\x8e\x8e\x8d\x8d\x8d\x8c\x8c\x8b\x8b\x8a\x8a\x89\x89\x88\x87\x86\x86\x85\x84\x83\x82\x81\x80~}|zyw.1469<>ACFHKMORTVXZ\\^`bdfhjlmoqstvwyz|}\x7f\x80\x81\x82\x84\x85\x86\x87\x88\x89\x8a\x8a\x8b\x8c\x8c\x8d\x8e\x8e\x8f\x8f\x8f\x90\x90\x90\x90\x90\x90\x91\x90\x90\x90\x90\x90\x90\x90\x8f\x8f\x8f\x8e\x8e\x8d\x8d\x8c\x8c\x8b\x8a\x89\x89\x88\x87\x86\x85\x84\x83\x82\x80\x7f~|{y.147:=?BDGILNQSUWY\\^`bdfhjkmoqstvxy{|~\x7f\x80\x82\x83\x84\x85\x87\x88\x89\x8a\x8b\x8b\x8c\x8d\x8e\x8e\x8f\x90\x90\x91\x91\x91\x92\x92\x92\x92\x93\x93\x93\x93\x93\x93\x92\x92\x92\x92\x92\x91\x91\x90\x90\x90\x8f\x8e\x8e\x8d\x8c\x8c\x8b\x8a\x89\x88\x87\x86\x85\x84\x82\x81\x7f~|{'
p38
tp39
bsS'im2'
p40
g4
(g5
(I0
tp41
g7
tp42
Rp43
(I1
(I100
I100
tp44
g28
I01
S',--./0012234455677889::;;<<==>>??@@AABBCCDDDEEFFFFGGGGHHHHHIIIIIIIIIIIIIIIIIIIIIIIIIIIIHHHHHHGGGGFFF+,-../0112334456678899::;<<==>>??@@AABBCCDDDEEFFFGGGGHHHHHHIIIIIIIIIIIIIIIIIIIIIIIIIIIHHHHHHGGGGGFFF+,--.//012233455677889::;;<==>>??@@AABBCCDDEEEFFFGGGGHHHHHIIIIIIIIIIIIIIIIIIIIIIIIIIHHHHHHHGGGGGFFFE++,-../0012234456678899:;;<<=>>??@@AABBCCDDEEEFFFGGGHHHHHIIIIIIIIIIIIIIIIIIIIIIIIIHHHHHHHHGGGGGFFFFE*+,--.//011233455677899::;<<==>??@@AABBCCDDEEFFFGGGHHHHHIIIIIIIIIIIIIIIIIIIIIIIIIHHHHHHHHGGGGGFFFFEE*++,-../001223445667889::;<<==>??@@AABCCDDEEEFFGGGGHHHHIIIIIIIIIIIIIIIIIIIIIIIIHHHHHHHHGGGGGGFFFFEEE)*+,,-.//011233456678899:;;<==>??@@ABBCCDDEEFFFGGGHHHHIIIIIIIIJJJJJIIIIIIIIIIIHHHHHHHHGGGGGGFFFFFEEE)*++,-../001233455677899:;;<==>??@AABBCCDDEEFFGGGHHHIIIIIIJJJJJJJJJJJIIIIIIIIIHHHHHHHGGGGGGFFFFFEEED))*+,,-.//01223445667889:;;<==>??@AABBCDDEEFFGGGHHHIIIIIJJJJJJJJJJJJJJIIIIIIIHHHHHHHGGGGGGFFFFFEEEED()*++,-../00123345567889::;<==>??@AABCCDDEEFFGGHHHIIIIJJJJJJJJJJJJJJJJJIIIIIIHHHHHHGGGGGGFFFFFEEEEDD())*+,,-.//0122345567789::;<==>?@@ABBCDDEEFFGGHHIIIIJJJJJJKKKKKJJJJJJJJJIIIIIHHHHHGGGGGGFFFFFEEEEDDD\'()*++,-../0112344567789::;<==>?@@ABBCDDEFFGGHHIIIJJJJKKKKKKKKKKKKJJJJJJIIIIIHHHHHGGGGGFFFFFEEEEDDDD\'())*+,--./0012334566789::;<=>>?@AABCCDEEFGGHHIIIJJJKKKKKKKKKKKKKKKKJJJJJIIIIHHHHHGGGGFFFFFEEEEDDDDC\'\'()*++,-.//012234566789::;<=>>?@ABBCDEEFGGHHIIJJJKKKKLLLLLLLLLLKKKKKJJJJIIIIHHHHGGGGGFFFFEEEEDDDDCC&\'())*+,--./011234556789::;<=>??@ABCCDEFFGHHIIJJKKKLLLLLLLLLLLLLLLKKKKJJJJIIIIHHHGGGGFFFFEEEEDDDDCCC&\'(()*+,,-./001234456789::;<=>?@AABCDEEFGHHIIJJKKLLLMMMMMMMMMMMMLLLLKKKJJJIIIIHHHGGGGFFFEEEEDDDDCCCC%&\'()**+,-../01233456789::;<=>?@ABCCDEFGGHIJJKKLLMMMMNNNNNNNNMMMMMLLLKKKJJJIIIHHHGGGFFFFEEEEDDDDCCCB%&\'(()*+,--./01223456789:;;<=>?@ABCDEFFGHIJJKKLMMMNNNNNOOOONNNNNMMMLLLKKKJJIIIHHHGGGFFFEEEEDDDDCCCBB%&&\'()*++,-./01123456789:;<=>?@@ABCDEFGHIJJKLLMMNNOOOOOOOOOOOOONNNMMLLLKKJJJIIHHHGGGFFFEEEDDDDCCCCBB$%&\'())*+,-.//0123456789:;<=>?@ABCDEFGHIIJKLMMNNOOPPPPPPPPPPPOOOONNMMLLLKKJJIIIHHGGGFFFEEEDDDCCCCBBB$%&\'\'()*+,-../0123456789:;<=>?@ABCDEFGHIJKLMNNOOPPQQQQQQQQQQQPPPOONNMMLLKKJJJIIHHGGGFFEEEDDDDCCCBBBA$%%&\'()*+,,-./0123456789:;<=>?@BCDEFGHIJKLMNOOPPQQRRRRRRRRRRQQQPPOONNMMLLKKJJIIHHGGGFFEEEDDDCCCBBBBA#$%&\'()**+,-./0123456789:;<=?@ABCDFGHIJKLMNOPPQRRSSSSTTTSSSSRRRQQPPONNMMLLKJJIIHHGGFFFEEEDDDCCCBBBAA#$%&\'\'()*+,-./0123456789:;<>?@ABDEFGIJKLMNOPQRRSSTTUUUUUUTTTSSSRQQPPONNMMLKKJJIHHGGFFFEEDDDCCCBBBAAA#$%%&\'()*+,-./0013456789:;=>?@BCDFGHIKLMNOPQRSTTUUVVVVVVVVUUUTTSRRQPPONNMLLKJJIIHGGFFFEEDDDCCCBBBAAA"#$%&\'()*++,-./012356789:<=>?ABCEFHIJLMNOPRSTTUVVWWXXXXXWWWVVUUTSRRQPPONMMLKKJIIHHGFFEEEDDCCCBBBAAA@"#$%&\'(()*+,-./012356789;<=>@ACDEGHJKLNOPRSTUVWWXYYYYYYYYXXXWVVUTSSRQPOONMLKKJIIHHGFFEEEDDCCCBBAAAA@"#$%%&\'()*+,-./012356789;<=?@BCEFHIKLNOPRSTUWXXYZZ[[[[[[ZZYYXXWVUTSRRQPONMMLKJJIHHGFFEEDDDCCBBBAAA@@!"#$%&\'()*+,-./01235678:;<>?ABDEGHJKMOPRSUVWXYZ[\\\\]]]]]]\\\\[ZZYXWVUTSRQPOONMLKJJIHHGFFEEDDCCCBBAAA@@@!"#$%&\'()*+,-./01234678:;<>?ABDFGIKLNPQSUVWYZ[\\]^^_____^^]]\\[ZYXWVUTSRQPONMLKKJIHHGFFEEDDCCBBBAAA@@@!"#$%&\'(()*+-./01234678:;=>@ACEFHJLMOQSTVXY[\\]^_``aaaaa``_^]]\\ZYXWVUTSRPONNMLKJIHHGFFEEDDCCBBBAA@@@?!"##$%&\'()*+,-.01234678:;=>@BCEGIKLNPRTVXY[]^_`abccccccbba`_^]\\[YXWVTSRQPONMLKJIIHGFFEEDDCCBBAAA@@@? !"#$%&\'()*+,-./1234679:;=?@BDFHIKMOQSUWY[]_`bcdeeffffeedcba`^]\\[YXWUTSQPONMLKJIIHGFFEEDCCCBBAA@@@?? !"#$%&\'()*+,-./1234679:<=?ABDFHJLNPSUWY[]_acdefghhiihhgfedca`_]\\ZYWVUSRQPNMLKJJIHGFFEDDCCBBBAA@@@?? !"#$%&\'()*+,-./0234679:<=?ACEGIKMORTVX[]_aceghijkkkkkjjigfecb`^][ZXWUTRQPONLKJJIHGFFEDDCCBBAAA@@??? !""#$%&\'()+,-./0234679:<>?ACEGILNPSUWZ\\_acfhiklmnnnnnmlkjhgecb`^\\[YWVTSRPONMLKJIHGFFEDDCCBBAA@@@???\x1f !"#$%&\'()*+-./0134679:<>@ACFHJLOQTVY[^acfhjlnopqqrqqpomljigeca_]\\ZXVUSRQONMLKJIHGFFEDDCCBBAA@@@??>\x1f !"#$%&\'()*+,./0134679:<>@BDFHJMORUWZ]`cehkmoqrttuuttsrpnlkifdb`^\\ZYWUTRQONMLKJIHGFEEDDCBBAAA@@???>\x1f !"#$%&\'()*+,-/0134579:<>@BDFIKNPSVY\\_behkmprtvwxxxxwvtsqomjhfda_][YWVTRQPNMLKJIHGFEEDCCBBAA@@@???>\x1f !"#$%&\'()*+,-.0124579:<>@BDGIKNQTWZ]`cgjmpsuwyz{||{zywusqnljgeb`^\\ZXVTSQPNMLKJIHGFEEDCCBBAA@@???>>\x1e\x1f !"#$%&\'(*+,-.0124579:<>@BDGILOQTX[^aehlosvx{}~\x7f\x7f\x7f\x7f}|zxuspnkhfca_\\ZXVUSQPNMLKJIHGFEDDCCBAAA@@???>>\x1e\x1f !"#$%&\'()+,-./124578:<>@BEGILORUX\\_cfjnrux{~\x80\x82\x83\x83\x83\x82\x81\x7f}zxuroljgdb_][YWUSQPNMLKJIHGFEDDCBBAA@@@???>>\x1e\x1f !"#$%&\'()*+-./123578:<>@BEGJLORVY\\`dhlptw{~\x81\x83\x85\x86\x86\x86\x85\x84\x82\x7f}zwtqnkheb`][YWUSQPNMLKIHGGFEDCCBBAA@@???>>>\x1e\x1f !"#$%&\'()*+,./023568:<>@BEGJMPSVY]aeimqvz}\x81\x84\x86\x88\x89\x8a\x89\x88\x87\x84\x82\x7f|xurnkhec`][YWUSQPNMLJIHGFFEDCCBBAA@@???>>>\x1e\x1f !"#$%&\'()*+,./023568:<>@BDGJMPSVZ^bfjnsw{\x80\x83\x86\x89\x8b\x8c\x8d\x8c\x8b\x89\x87\x84\x81}zvsolifc`^[YWUSQPNMKJIHGFEEDCCBAA@@@???>>>\x1d\x1e\x1f !"#$%&\')*+,-/013468:;=@BDGJLPSVZ^bfkotx}\x81\x85\x89\x8b\x8d\x8f\x8f\x8e\x8d\x8b\x88\x85\x82~{wsplifc`^[YWUSQONMKJIHGFEDDCBBAA@@@??>>>=\x1d\x1e\x1f !"#$%&\'()+,-.0134679;=?BDGILOSVZ^bgkpty~\x82\x86\x8a\x8d\x8f\x90\x91\x90\x8f\x8c\x8a\x86\x83\x7f{wtplifc`][YVTSQONLKJIHGFEDCCBBAA@@???>>>=\x1d\x1e\x1f !"#$%&\'()*,-./124579;=?ADFILORVZ^bfkpuz~\x83\x87\x8b\x8e\x90\x91\x92\x91\x8f\x8d\x8a\x87\x83\x7f{wtplifc`][XVTRPOMLKJHGFFEDCCBAAA@@???>>>=\x1d\x1e\x1f !"#$%&\'()*+-./124579;=?ACFILORVY]bfkoty~\x83\x87\x8b\x8e\x90\x91\x92\x91\x8f\x8d\x8a\x87\x83\x7f{wsolheb_]ZXVTRPOMLJIHGFEDDCBBAA@@@??>>>>=\x1d\x1e\x1f !"#$%&\'()*+,./023568:<>@CEHKNQUY]aejotx}\x82\x86\x8a\x8d\x8f\x90\x91\x90\x8e\x8c\x89\x86\x82~zvrokhda_\\ZWUSQPNMKJIHGFEDDCBBAA@@???>>>>=\x1c\x1d\x1e\x1f !"#$%&()*+,-/013468:<>@BEGJMQTX\\`dimrw|\x80\x85\x88\x8b\x8d\x8f\x8f\x8e\x8d\x8a\x88\x84\x81}yuqnjgda^[YWUSQONLKJHGFFEDCCBAAA@@???>>>>=\x1c\x1d\x1e\x1f !"#$%&\'()+,-.0134679;=?BDGJMPSW[_cglpuz~\x82\x86\x89\x8b\x8c\x8c\x8c\x8a\x88\x85\x82\x7f{wsplifb`]ZXVTRPOMLJIHGFEDDCBBAA@@@???>>>==\x1c\x1d\x1e\x1f !"#$%&\'()*,-./124579;=?ACFILORUY]aejnsw{\x7f\x82\x85\x87\x88\x89\x88\x87\x85\x82\x7f|xuqnjgda^\\YWUSQONLKJIHGFEDCCBBAA@@????>>>==\x1c\x1d\x1e\x1f !"#$%&\'()*+,./023568:<>@CEHJMQTX[_cglptx{\x7f\x81\x83\x84\x85\x84\x83\x81\x7f|yvrolheb`][XVTRPOMLKIHGFEEDCCBAA@@@???>>>>==\x1c\x1d\x1e\x1f !"#$%&\'()*+,-/0134689;=?BDGILORVY]aeimqtxz}\x7f\x80\x80\x80\x7f}{xvsplifca^\\YWUSQONLKJIHGFEDCCBBAA@@@???>>>>>=\x1c\x1d\x1e\x1f !"#$%&\'()*+,-.0124579;=?ACEHKNQTW[^bfimpsvxz{{{zywtroljgda_\\ZXVTRPOMLJIHGFEEDCCBAAA@@@???>>>>>=\x1c\x1d\x1e\x1f !!"#$%&\'()*,-./123568:<>@BDGILORUX\\_bfiloqsuvvvutrpnligdb_]ZXVTRQONLKJIHGFEDCCBBAA@@@????>>>>>=\x1c\x1d\x1e\x1f\x1f !"#$%&\'()*+,./0134679;=?ACEHJMPSVY\\_behkmopqqqponljhfda_][YWUSQONMKJIHGFEDDCCBAAA@@@????>>>>>>\x1b\x1c\x1d\x1e\x1f !"#$%&\'()*+,-.0124578:<>@BDFIKNQSVY\\_adfhjkllllkjhgeca_][YWUSQPNMLJIHGFEEDCCBBAA@@@@????>>>>>>\x1b\x1c\x1d\x1e\x1f !"#$%&\'()*+,-./1235689;=?ACEGILNQTVY[^`bdefghhgfedca_^\\ZXVUSQPNMLKIHGGFEDDCBBAAA@@@??????>>>>>\x1b\x1c\x1d\x1e\x1f !"#$%&\'()*+,-./0134578:<>?ACEHJLOQSVXZ\\^_abccccba`_^\\[YWVTSQPNMLKJIHGFEDDCCBBAA@@@@??????>>>>>\x1b\x1c\x1d\x1e\x1f !"#$%&&\'()*+,-.01235689;<>@BDFHJLNPSUWXZ[]^^___^^]\\[YXVUTRQONMLKJIHGFEDDCCBBAAA@@@@????????>>>\x1b\x1c\x1d\x1e\x1f !"#$%%&\'()*+,-./0234578:;=?@BDFHJLNPRSUVXYZZ[[[ZZYXWVUTSQPONMLJIHHGFEEDCCBBAAA@@@@@?????????>>\x1b\x1c\x1d\x1e\x1f !"#$$%&\'()*+,-./01235679:<=?ABDFHJKMOPRSTUVWWWWWWVUTTSRPONMLKJIHGGFEEDCCBBBAAA@@@@@???????????\x1b\x1c\x1d\x1e\x1f !"#$$%&\'()*++,-./12345789;<>?ABDFGIJLMOPQRSSTTTTSSRRQPONMLKKJIHGFFEDDCCBBBAAA@@@@@@@??????????\x1b\x1c\x1d\x1e\x1f !"##$%&\'())*+,-./01235678:;<>?ABDEGHIKLMNOPPPQQQPPPONNMLKKJIHHGFEEDDCCBBBAAA@@@@@@@@@@????????\x1b\x1c\x1d\x1e\x1f !"##$%&\'(()*+,-./012345679:;=>?ABCEFGHIJKLMMNNNNNMMMLLKJJIHHGFFEEDDCCBBBAAAA@@@@@@@@@@@@@@@@@@\x1b\x1c\x1d\x1e\x1f !"##$%&\'(()*+,--./012345789:;=>?@ACDEFGHIIJKKKKKKKKJJJIIHGGFFEEDDCCBBBAAAAA@@@@@@@@@@@@@@@@@@@\x1b\x1c\x1d\x1e\x1f !"##$%&\'\'()*+,,-./0123456789:;<>?@ABCDEFFGHHIIIIIIIHHHGGGFFEEDDCCCBBBAAAAA@@@@@@@@@@@@@@@@@@@@\x1b\x1c\x1d\x1e\x1f !"#$$%&\'\'()*++,-./00123456789:;<=>?@ABCDDEFFFGGGGGGGFFFEEEDDDCCCBBBAAAAAA@@@@@@@@@@@@@AAAAAAAA\x1b\x1c\x1d\x1e\x1f !"#$$%&\'\'()**+,-../01234456789:;<=>?@@ABCCDDDEEEEEEEEEDDDDCCCBBBBAAAAAA@@@@@@@@@@@AAAAAAAAAAAA\x1c\x1d\x1e\x1f\x1f !"#$%%&\'(()**+,--./011234566789:;<==>?@@AABBCCCCCDDCCCCCCCBBBBAAAAAAA@@@@@@@@@@AAAAAAAAABBBBBB\x1c\x1d\x1e\x1f !!"#$%%&\'(()**+,--.//012334567789:;;<=>>??@@AAABBBBBBBBBBBBAAAAAAAA@@@@@@@@@@@AAAAAAAABBBBBBBBB\x1c\x1d\x1e\x1f !""#$%&&\'(()**+,--.//0112344567789::;<<=>>???@@@AAAAAAAAAAAAAA@@@@@@@@@@@@@@AAAAAAABBBBBBCCCCCC\x1c\x1d\x1e\x1f !"##$%&&\'())*++,,-../001233455677899:;;<<==>>????@@@@@@@@@@@@@@@@@@@@@@@@@AAAAAAABBBBBCCCCCCCCD\x1c\x1d\x1e\x1f !"#$$%&\'\'())*++,--../0012234456677899::;;<<==>>>>???????????@@@@@@@@@@@@@AAAAAABBBBCCCCCDDDDDDD\x1c\x1d\x1e\x1f !"#$%%&\'(()**++,--../00112334556678899::;;<<<===>>>>>>??????????@@@@@@@@AAAAABBBBCCCCDDDDDEEEEE\x1c\x1e\x1f !""#$%&&\'(()**+,,--../001123344556678899:::;;<<<====>>>>>>????????@@@@@@AAAABBBBCCCCDDDEEEEEEFFF\x1d\x1e\x1f !"#$$%&\'\'())*++,,-..//0011223445566778899:::;;;<<<=====>>>>>??????@@@@@AAABBBBCCCDDDDEEEEFFFFFFF\x1d\x1e\x1f !"#$%&&\'(()**+,,--..//00112233445566778899:::;;;<<<<====>>>>>????@@@@AAAABBBCCCDDDEEEEFFFGGGGGGG\x1d\x1e\x1f !"#$%&\'\'())*++,,--.//0011223334455667788899:::;;;<<<<===>>>>>???@@@@AAABBBBCCDDDEEEFFFGGGGHHHHHH\x1d\x1f !"#$%%&\'())**+,,--..//00112233444556677888999::;;;;<<<===>>>>????@@@AAABBBCCCDDEEEFFFGGHHHHIIIIII\x1e\x1f !"#$%&\'(()**+,,--..//001122233445556677888999:::;;;<<<===>>>????@@@AABBBCCCDDEEEFFGGGHHHIIIJJJJJJ\x1e\x1f "#$%&&\'())*++,--..//001122233444556667788899:::;;;<<<===>>>???@@@AAABBCCCDDEEEFFGGHHHIIJJJJKKKKKK\x1e !"#$%&\'())*++,--..//0011222334445566677888999:::;;;<<===>>>???@@@AABBBCCDDEEEFFGGHHIIIJJKKKLLLLLLL\x1f !"#%&&\'()*++,--..//0011223334455566677888999:::;;;<<===>>>???@@AAABBCCDDEEEFFGGHHIIJJKKKLLLMMMMMNN\x1f "#$%&\'()**+,--../00111223344455566777888999::;;;<<<===>>???@@AAABBCCDDEEEFFGGHHIIJJKKLLMMMNNNNOOOO\x1f!"#$&\'())*+,--.//0011223334455566677888999:::;;;<<===>>>??@@@AABBCCDDEEEFGGHHIIJJKKLLMMNNNOOOPPPPPP !"$%&\'()*+,--.//001222334455566677888999:::;;;<<<==>>>??@@@AABBCCDDEEFFGGHHIIJJKKLMMNNNOOPPPQQQQQQQ "#$&\'()*+,--.//01122334455566777888999:::;;;<<===>>>??@@@AABBCCDDEEFFGGHHIIJKKLLMMNNOOPPQQRRRRSSSSS!"#%&\'(*+,,-./0012233445566677888999:::;;;<<<===>>???@@AAABBCCDDEEFFGGHIIJJKKLMMNNOOPPQQRRSSSTTTTTTT!#$%\'()*+,-./01123344556677788999:::;;;<<<===>>>??@@@AABBCCDDDEEFGGHHIIJJKLLMMNOOPPQRRSSTTTUUUUVVVVU!#%&\')*+,-./011234455667788899:::;;;<<<===>>???@@@AABBBCCDDEEFFGGHHIJJKKLMMNNOPPQRRSSTTUUVVVWWWWWWWW"$%\'()+,-./0122345566778899:::;;<<<===>>>???@@@AABBBCCDDEEFFGGHHIIJKKLLMNNOPPQQRSSTTUVVWWWXXXYYYYYYX"$&\')*+-./01233456678899:::;;<<<==>>>???@@@AAABBCCCDDEEFFGGHHIIJJKLLMMNOOPQQRSSTTUVVWWXXYYZZZZZ[[ZZZ#%&()+,-/0123455678899::;;<<===>>???@@@AAABBCCCDDEEEFFGGHHIIJJKLLMMNOOPQQRSSTTUVVWXXYYZZ[[[\\\\\\\\\\\\\\\\\\#%\'(*,-./12345677899:;;<<==>>???@@@AABBBCCCDDEEEFFGGHHHIIJKKLLMMNOOPQQRRSTUUVWWXXYZZ[[\\\\]]]^^^^^^^^]$&()+,./0234567899:;;<==>>??@@@AABBBCCDDDEEEFFGGHHHIIJJKKLLMNNOOPQQRSSTUUVWWXYYZ[[\\\\]]^^___```````__$&(*,-/013456789:;;<==>??@@AABBCCCDDEEEFFFGGHHHIIJJKKLLMMNNOPPQQRSSTUUVWWXYYZ[[\\]]^__``aaabbbbbbbbaa%\')+,.012456789:;<=>>?@@AABBCCDDEEFFFGGHHHIIJJJKKLLMMNNOOPQQRRSTTUVVWXXYZZ[\\\\]^^_``aabbcccdddddddccb'
p45
tp46
bsS'l2'
p47
g4
(g5
(I0
tp48
g7
tp49
Rp50
(I1
(I1
I3
tp51
g14
I00
S'\x9a\x99\x99\x99\x99\x99\xc9?\x00\x00\x00\x00\x00\x00\x00\x00\x00\x00\x00\x00\x00\x00\xf0?'
p52
tp53
bsS'im4'
p54
g4
(g5
(I0
tp55
g7
tp56
Rp57
(I1
(I100
I100
tp58
g28
I01
S",--..//011122333444555556666667777777777777776666666665555555554444444444444444555555566666777777788,,-..//001122233344455556666666677777777777766666666655555554444444444444444444444455555566666677777+,--..//00112233344445555666666667777777777666666666555555444444443333333333333344444445555566666677+,,-..//00112223334445555566666667777777776666666665555554444443333333333333333333333444445555566666++,--..//0011223334444555566666667777777776666666655555544444333333332222222222223333333444445555556*+,,-..//0011222333444555566666667777777777666666655555444443333332222222222222222222233333444445555*++,--.//0011122333444555566666677777777777766666655555444443333222222211111111111222222233333444445*++,--..//001122333444555566666677777777777776666665555444433332222221111111111111111122222233333444**+,,-..//001122233444555566666777777777777777666665555444433332222111111100000000111111122222333334)*++,--../001122233444555666667777777777777777766666555444433322221111100000000000000001111122222333)**+,,-..//0011223344455566667777777888887777777666655554443332222111100000000///0000000001111122222))*+,,-..//001122334445556667777788888888888877777666555444333222111100000/////////////0000001111222()*++,--.//00112233445556667777888888888888888877776665554443322211100000/////////////////0000011111()*++,--.//0011223344555667777888889999999988888877766655544333221110000/////.........///////0000111()**+,,-../001122334455666777888899999999999999888777666554433322111000////.............../////00001())*+,,-../0011233445556677788899999::::::::999998887766655443322111000///........--......../////000(()*+,,-../0011233445566777889999::::::::::::::999988776665544332211000///....-----------......////0'()*++,-../00122334455667788999::::;;;;;;;;;;;::::99887766554433221100///....---------------.....///'()*++,-../001223345566778899:::;;;;<<<<<<<<<;;;;:::998876655443221100///...-------,,,--------....//'()**+,-../00122344556778899::;;;<<<<========<<<<;;::998876655433221100//...----,,,,,,,,,,------....'())*+,-../0012334556678899::;;<<<====>>>>>>>====<<;;::9887665443221100//..----,,,,,,,,,,,,,,-----..'())*+,-../011233455677899::;;<<==>>>>???????>>>>==<<;;:988766543321100//..---,,,,,,,,,,,,,,,,,----.''()*+,-../01123445667889::;<<==>>>???@@@@@@@@???>>==<;;:99876554322100//..---,,,,,++++++++,,,,,----&'()*+,-../0122345567889::;<<==>>??@@AAAAAAAAAA@@@??>==<;:9987654432110//..---,,,++++++++++++,,,,,--&'()*+,-../012334567789::;<<=>>??@@AABBBBCCCCBBBAA@@?>>=<;:9987654322100/..---,,,++++++++++++++,,,,-&'()*+,-.//012344567899:;<<=>??@@ABBCCCDDDDDDDDCCBBAA@?>=<;:987665432110//.---,,++++++++++++++++,,,,&'()*+,-./001234566789:;<<=>??@ABBCCDDEEEFFFFFEEEDDCBA@??><;:98765432210//.---,,+++++*******++++++,,&'()*+,-./01123456789::;<=>?@@ABCCDEEFFGGGHHHGGGFFEEDCBA@?>=;:98765432100/..--,,++++**********+++++,&'()*+,-./01234556789:;<=>?@AABCDEFFGGHHIIIJJIIIHHGFFEDCA@?>=;:9875432110/..--,,+++************+++++&'()*+,-./0123456789:;<=>?@ABBCDEFGHHIJJKKKLLLKKKJIHHGEDCB@?><;:976543210//.--,,+++*************++++&'()*+,-./0123456789:;<=>?@BCDEFGHHIJKLLMMNNNNNMMLLKJIGFECBA?><;9876432100/.--,,+++**************+++&'()*+,-./012345789:;<=>?@ACDEFGHIJKLMNNOPPPPPPPOONMLKJHGEDBA?=<:986543210/..-,,+++*****)))*******++&'()*+,-./023456789:;=>?@ABDEFGHIKLMNOPQQRRSSSSSRQQPNMLJIGEDB@?=;:87643210/..-,,+++****))))))******+&'()*+,-.012345678:;<=>@ABCEFGHJKLMOPQRSTUUVVVVVUTTRQPNMKIGEDB@>=;986543210/.--,+++****)))))))******%'()*+,-/012345789:;=>?@BCDFGHJKMNOQRSTUVWXYYYYYXXWUTSQOMKIGECA@><:97643210/.--,,++****))))))))*****%'()*+,./012356789;<=>@ABDEGHJKMNPQSTUWXYZ[\\\\\\\\\\\\[ZYWVTRPNKIGECA?=;98654210/..-,,++***))))))))))****%'()*+-./01245679:;<>?@BCEFHIKMNPQSUVXY[\\]^_````__^\\[YWURPNKIGDB@><:97643210/.-,,++****)))))))))****%'()*+-./01345689:<=>@ACDFGIKLNPQSUWXZ\\]_`bccdddcba`^\\ZXUSPMKHFDA?=;98653210/.--,++****))))))))))***%'()*,-./02345789;<>?@BCEGHJLMOQSUWY[]_`bdefghhhggedb`][XURPMJHEC@><:8754310/.--,+++***))))))))))***%'()*,-./1234678:;=>@ACDFHIKMOQSUWY[]_acegijkllllkjhfca^[XUROLIFDA?=;97643210/.-,,++***))))))))))***%'()*,-.01235679:<=?@BCEGHJLNPRTVY[]_bdfhjlnopqqponljgda^[WTQNKHEC@><:8653210/.-,,++****)))))))))***%'()+,-.01245689;<>?ABDFGIKMOQSVXZ]_bdgilnprstuuutsqnkhea^ZVSPLIGDA?=;9754210/.--,++****)))))))))***%'()+,-/0134578:;<>@ACEFHJLNPRUWY\\_adgiloqtvxyzzzywurolhd`]YUQNKHEB@=;9864320/..-,,++****)))))))****%'()+,-/0134678:;=>@BCEGIKMOQTVX[^`cfiloruwz|}~\x7f~}|ywsokgc_[WSPLIFCA><:8653210/.-,,++*****)))))*****%'()+,-/0234679:<=?ABDFHJLNPRUWZ\\_behknrux{}\x80\x81\x82\x83\x83\x82\x80~{wsojfa]YUQMJGDA?=;9754210/.--,+++*****)))******%'()+,./0235689;<>?ACEFHJLOQSVX[^`cgjmqtw{~\x81\x83\x85\x86\x87\x87\x86\x84\x82~zvrmhc_[VROKHEB@=;9764310/..-,,++**************%'(*+,./1235689;<>@ACEGIKMORTVY\\_behkorvz}\x81\x84\x86\x88\x8a\x8b\x8b\x8a\x88\x85\x82}ytojea\\XTPLIFC@><:8643210/.-,,+++*************%'(*+,./124578:;=>@BDEGIKNPRUWZ]`cfimptx|\x7f\x83\x86\x89\x8b\x8d\x8e\x8e\x8d\x8b\x88\x84\x80{vqlgb]YUQMJFDA><:8653210/.--,,+++***********+%'(*+-./124578:;=?@BDFHJLNPSUX[]`dgjnruy}\x81\x85\x88\x8b\x8d\x8f\x90\x90\x8f\x8d\x8a\x86\x82}xsmhc^ZUQNJGDA?=;9754210/..-,,++++********+++%'(*+-.0124579:<=?ACDFHJLOQSVX[^adhkorvz~\x82\x86\x89\x8c\x8f\x91\x91\x91\x90\x8e\x8b\x88\x83~ytnid_[VRNKHEB?=;97643210/.--,,+++++****+++++%'(*+-.0134679:<>?ACEGIKMOQTVY\\_behlosw{\x7f\x83\x86\x8a\x8d\x8f\x91\x92\x92\x91\x8f\x8c\x88\x84\x7fztoje`[WSOKHEB@=;98643210/..-,,,+++++++++++++%'(*+-.0134679;<>@ACEGIKMORTWY\\_behlpsw{\x7f\x83\x86\x8a\x8d\x8f\x91\x92\x92\x90\x8e\x8c\x88\x83\x7fztoje`[WSOLHEC@><:8653210//.--,,,+++++++++++,%'(*+-.0134689;<>@BCEGIKMPRTWY\\_beilosw{~\x82\x86\x89\x8c\x8e\x90\x90\x90\x8f\x8d\x8a\x87\x83~ytoie`[WSOLIFC@><:87543210/..--,,,,++++++,,,,%')*,-/0235689;=>@BDEGIKNPRUWZ\\_behlosvz~\x81\x84\x87\x8a\x8c\x8e\x8e\x8e\x8d\x8b\x89\x85\x81}xsnid_[WSOLIFCA><:97543210//.---,,,,,,,,,,,,,%')*,-/023568:;=?@BDFHJLNPRUWZ\\_behkoruy|\x80\x83\x86\x88\x8a\x8b\x8c\x8c\x8b\x89\x86\x83\x7f{vrmhc_[WSOLIFCA?<;976432100/..---,,,,,,,,,,,-&')*,-/023578:;=?@BDFHJLNPRUWZ\\_behknqtx{~\x81\x83\x86\x87\x88\x89\x89\x88\x86\x83\x80}ytpkgc^ZVSOLIFCA?=;986543210//..-----,,,,-----&')*,-/024578:<=?ABDFHJLNPRUWY\\_adgjmpsvy|\x7f\x81\x83\x84\x85\x86\x85\x84\x83\x80}zvrnjfa]YVROLIFCA?=;9865432100//...------------&')*,-/124578:<=?ACDFHJLNPRTWY\\^acfilortwz|~\x80\x81\x82\x82\x82\x81\x7f}zwtplhd`\\YUROKIFDA?=;:8754322100//....-------...&')*,./124579:<>?ACDFHJLNPRTWY[^`cehkmpsuwz{}~\x7f\x7f~}|zwtqnjfc_[XTQNKHFDA?=<:87654321100//.............&')+,./124679:<>?ACDFHJLNPRTVX[]_bdgilnqsuwyz{{{{zxwtrokhea^ZWTQNKHFDA?><:976543221000////.......///&')+,./134679;<>?ACEFHJLNPRTVXZ\\_acfhjmoqstvwxxxwwusqolifc`\\YVSPMKHFCA?><:9875543221100/////////////&')+,.0134679;<>@ACEFHJLNPRTVXZ\\^`begikmoprstuuutsrpnljgda^[XUROMJHFCA@><;98765433221100000////00000&()+,.0134689;<>@ACEFHJLNOQSUWY[]_acegikmnopqrrrqponljgeb_\\ZWTQOLJHECB@>=;:9765543322111000000000001&()+-.0135689;=>@ACEFHJLMOQSUWYZ\\^`bdfgiklmnnooonmlkigec`^[XVSQNLJGECB@>=;:9876544332221111111111111&()+-.023568:;=>@BCEFHJLMOQSTVXZ\\]_acdfgijkklllllkjhgeca^\\ZWURPNKIGECB@>=<:9876654433222221111112222&(*+-/023578:;=>@BCEFHJKMOQRTVWY[]^`acdfghiijjjjihgfdca_][XVTROMKIGECB@?=<;:987665443333222222222223&(*+-/024578:;=?@BCEGHJKMOPRTUWXZ\\]_`bcdefgghhhggfedba_][YWUSQOMKIGEDB@?><;:988766554443333333333333&(*,-/024578:<=?@BCEGHJKMNPRSUVXY[\\^_`abcdeefffeedcba_^\\ZXVTRPNLKIGEDBA?>=<;:98776655544444444444444&(*,-/124679:<=?@BDEGHJKMNPQSTVWYZ[]^_`abccddddccba`_^\\ZYWUSRPNLJIGEDBA@>=<;::9877666555555444555555'(*,./124679:<>?ABDEGHJKMNPQSTUWXY[\\]^_`aabbbbbba``_]\\[YXVTSQOMLJHGEDCA@?>=<;:9988776666655555556666'(*,./134689;<>?ABDEGHJKMNOQRTUVXYZ[\\]^__``aaa```_^]\\[ZXWUTRPOMLJHGFDCB@?>=<<;::98887777666666666777')*,.0135689;<>?ABDEGHJKMNOQRSUVWXYZ[\\]^^_______^^]\\[ZYWVUSRPNMKJIGFDCBA@?>=<<;::9988888777777777788')+,.013568:;=>@ACDFGHJKMNOPRSTUWXYZZ[\\]]^^^^^^^]\\\\[ZYXWUTSQPNMKJIGFEDCA@??>=<<;;::99998888888888899')+-.023578:;=>@ACDFGHJKMNOPRSTUVWXYZ[[\\\\]]]]]]\\\\[[ZYXWVUSRQONMKJIHFEDCBA@??>==<<;;::::9999999999:::')+-/024579:<=?@BCDFGIJKMNOPQSTUVWXYYZ[[\\\\\\\\\\\\\\\\[[ZYXWVUTSRQONMLJIHGFEDCBA@??>==<<<;;;;;::::::::;;;;')+-/124679:<=?@BCEFGIJKMNOPQSTUVVWXYYZ[[[[\\\\[[[ZZYYXWVUTSRPONMLKIHGFEDCBBA@@?>>===<<<<<<;;;;;<<<<<<(*+-/134689;<>?ABDEFHIJLMNOPQRSTUVWXXYZZZ[[[[[[ZZYYXWVVUTSRPONMLKJIHGFEDCBBA@@??>>>>================(*,-/135689;=>@ABDEGHIJLMNOPQRSTUVWXXYYZZZZZZZZZYYXXWVUTTSRQONMLKJIHGGFEDCCBAA@@@???>>>>>>>>>>>>>>>>(*,.013578:;=>@ACDFGHJKLMNOPRSSTUVWWXYYYZZZZZZZYYYXWWVUTTSRQPONMLKJIHGFFEDDCBBBAA@@@@???????????????(*,.023579:<=?@BCEFGIJKLMOPQRSTTUVWWXXYYYZZZZZYYYXXWWVUTTSRQPONMLKKJIHGGFEEDDCCBBBAAAAAAA@@@@@AAAAAA(*,.024679;<>?ABDEFHIJKMNOPQRSTUUVWWXXYYYZZZZZYYYXXWWVUUTSRQPPONMLKKJIHHGFFEEDDDCCCBBBBBBBBBBBBBBBBB)+-/124689;=>@ACDEGHIKLMNOPQRSTUUVWWXXYYYZZZZZYYYXXWWVVUTSSRQPOONMLKKJIIHGGFFFEEDDDDDDCCCCCCCCCCCCCC)+-/13568:;=?@BCEFGIJKLMNPQRRSTUVVWXXYYYYZZZZZYYYYXXWWVUUTSRRQPOONMLLKJJIIHHGGFFFFEEEEEEEEEEEEEEEEEE)+-/13579:<>?ABDEFHIJLMNOPQRSTUUVWWXXYYYZZZZZZZYYYXXXWVVUTTSRRQPOONMMLLKJJIIIHHHGGGGGFFFFFFFFFFFFFFF),.024579;<>@ACDFGHJKLMNOPQRSTUVVWXXYYYZZZZZZZZZZYYXXWWVVUTTSRRQPPONNMMLLKKJJJIIIIHHHHHHHHHHHHHHHHHH*,.02468:;=?@BCEFHIJKMNOPQRSTUUVWXXYYYZZZ[[[[[ZZZZYYYXXWVVUUTSSRQQPPOONNMMLLKKKKJJJJJJJJJJJJJJJIIIII*,.02468:<>?ABDEGHJKLMNPQRSTTUVWWXYYZZZ[[[[[[[[[[ZZZYYXXWWVVUTTSSRQQPPOOONNMMMLLLLLLLKKKKKKKKKKKKKKK*,/13579;<>@ACEFGIJKMNOPQRSTUVWWXYYZZ[[[[\\\\\\\\\\\\[[[[ZZZYYXXWWVVUTTSSRRQQPPPOOONNNNNMMMMMMMMMMMMMMMMML+-/13579;=?@BDEGHJKLMOPQRSTUVWWXYYZZ[[\\\\\\\\\\\\]\\\\\\\\\\\\[[[ZZYYXXWWVVUUTTSSRRRQQQPPPPPOOOOOOOOOOOOOOOONNN+-/2468:<>?ACDFGIJLMNOQRSTUVWWXYZZ[[\\\\\\]]]]]]]]]]]]\\\\\\[[ZZYYYXXWWVVUUTTTSSSRRRRRQQQQQQQQQQQQQQQPPPPP+.02468:<>@BCEGHJKLNOPQSTUVWWXYZZ[\\\\]]]^^^^^^^^^^^^]]]\\\\\\[[ZZYYYXXWWVVVUUUUTTTTSSSSSSSSSSSSSSSRRRRRQ,.03579;=?ABDFGIJLMOPQRSUVWWXYZ[[\\\\]]^^____________^^^^]]]\\\\[[[ZZYYYXXXWWWVVVVVUUUUUUUUUUUUUUUTTTTTS,.1357:<>@ACEGHJKMNPQRSTVWXXYZ[\\\\]^^^__``````````````___^^^]]]\\\\[[[ZZZYYYYXXXXXXWWWWWWWWWWWWWWVVVVUU,/1368:<>@BDFGIKLNOQRSTUWXYZZ[\\]]^__```aaaabbbbbbaaaaa````___^^^]]]\\\\\\[[[[ZZZZZZZZYYYYYYYYYYYYXXXXWW-/2469;=?ACEGHJLMOPRSTUWXYZ[\\\\]^__``aabbbbccccccccccbbbbbaaa```____^^^]]]]]\\\\\\\\\\\\\\\\\\\\\\[[[[[[[[ZZZZYY-/2479;>@BDFGIKMNPQSTUVXYZ[\\]^^_``abbcccddddddeedddddddccccbbbbaaaa````______^^^^^^^^^^^^]]]]]]\\\\\\[[-0257:<>@CEFHJLNOQRTUVXYZ[\\]^_``abbcdddeeeffffffffffffeeeeeddddccccbbbbbbaaaaaaaa``````````____^^^]].0358:=?ACEGIKMOPRSUVXYZ[\\]^_`abccddeeffgggghhhhhhhhhhgggggfffffeeeeedddddddcccccccccccbbbbbbaaa``__.1369;=@BDFHJLNPQSUVWYZ[]^_`abccdeefgghhhiiiiijjjjjjjiiiiiiihhhhhgggggggffffffffffeeeeeeeeddddccbba`.1479<>@CEGIKMOQSTVWYZ[]^_`abcdeffghhiijjjkkkkklllllllkkkkkkkkjjjjjjiiiiiiiiihhhhhhhhhhgggggfffeedcb"
p59
tp60
bsS'l1'
p61
g4
(g5
(I0
tp62
g7
tp63
Rp64
(I1
(I1
I3
tp65
g11
(S'i2'
p66
I0
I1
tp67
Rp68
(I3
S'<'
p69
NNNI-1
I-1
I0
tp70
bI00
S'\x00\x00\x00\x00\x01\x00'
p71
tp72
bsS'__globals__'
p73
(lp74
sS'l3'
p75
g4
(g5
(I0
tp76
g7
tp77
Rp78
(I1
(I1
I3
tp79
g14
I00
S'\x9a\x99\x99\x99\x99\x99\xc9\xbf\x00\x00\x00\x00\x00\x00\x00\x00\x00\x00\x00\x00\x00\x00\xf0?'
p80
tp81
bs.